target datalayout = "e-m:e-p270:32:32-p271:32:32-p272:64:64-i64:64-i128:128-f80:128-n8:16:32:64-S128"
target triple = "x86_64-pc-linux-gnu"

%struct.VLCInitState = type { ptr, i32 }

@__const.x8_vlc_init.state = private unnamed_addr constant { ptr, i32, [4 x i8] } { ptr @x8_vlc_init.vlc_buf, i32 28150, [4 x i8] zeroinitializer }, align 8
@j_ac_vlc = internal global [2 x [2 x [8 x ptr]]] zeroinitializer, align 16
@j_dc_vlc = internal global [2 x [8 x ptr]] zeroinitializer, align 16
@j_orient_vlc = internal global [2 x [4 x ptr]] zeroinitializer, align 16

; Function Attrs: cold nounwind optsize uwtable
define internal ptr @x8_init_vlc(ptr noundef %0, i32 noundef %1, i32 noundef %2, ptr noundef %3) #0 {
  %5 = alloca ptr, align 8
  %6 = alloca i32, align 4
  %7 = alloca i32, align 4
  %8 = alloca ptr, align 8
  store ptr %0, ptr %5, align 8, !tbaa !88
  store i32 %1, ptr %6, align 4, !tbaa !13
  store i32 %2, ptr %7, align 4, !tbaa !13
  store ptr %3, ptr %8, align 8, !tbaa !58
  %9 = load ptr, ptr %5, align 8, !tbaa !88
  %10 = load i32, ptr %6, align 4, !tbaa !13
  %11 = load i32, ptr %7, align 4, !tbaa !13
  %12 = load ptr, ptr %8, align 8, !tbaa !58
  %13 = getelementptr inbounds [2 x i8], ptr %12, i64 0
  %14 = getelementptr inbounds [2 x i8], ptr %13, i64 0, i64 1
  %15 = load ptr, ptr %8, align 8, !tbaa !58
  %16 = getelementptr inbounds [2 x i8], ptr %15, i64 0
  %17 = getelementptr inbounds [2 x i8], ptr %16, i64 0, i64 0
  %18 = call ptr @ff_vlc_init_tables_from_lengths(ptr noundef %9, i32 noundef %10, i32 noundef %11, ptr noundef %14, i32 noundef 2, ptr noundef %17, i32 noundef 2, i32 noundef 1, i32 noundef 0, i32 noundef 0)
  ret ptr %18
}

; Function Attrs: cold nounwind optsize uwtable
define internal void @x8_vlc_init() #0 {
  %1 = alloca %struct.VLCInitState, align 8
  %2 = alloca i32, align 4
  %3 = alloca i32, align 4
  %4 = alloca i32, align 4
  %5 = alloca i32, align 4
  %6 = alloca i32, align 4
  %7 = alloca i32, align 4
  %8 = alloca i32, align 4
  call void @llvm.lifetime.start.p0(i64 16, ptr %1) #9
  call void @llvm.memcpy.p0.p0.i64(ptr align 8 %1, ptr align 8 @__const.x8_vlc_init.state, i64 16, i1 false)
  call void @llvm.lifetime.start.p0(i64 4, ptr %2) #9
  call void @llvm.lifetime.start.p0(i64 4, ptr %3) #9
  store i32 0, ptr %3, align 4, !tbaa !13
  br label %9

9:                                                ; preds = %52, %0
  %10 = load i32, ptr %3, align 4, !tbaa !13
  %11 = icmp slt i32 %10, 2
  br i1 %11, label %13, label %12

12:                                               ; preds = %9
  store i32 2, ptr %4, align 4
  call void @llvm.lifetime.end.p0(i64 4, ptr %3) #9
  br label %55

13:                                               ; preds = %9
  call void @llvm.lifetime.start.p0(i64 4, ptr %5) #9
  store i32 0, ptr %5, align 4, !tbaa !13
  br label %14

14:                                               ; preds = %48, %13
  %15 = load i32, ptr %5, align 4, !tbaa !13
  %16 = icmp slt i32 %15, 2
  br i1 %16, label %18, label %17

17:                                               ; preds = %14
  store i32 5, ptr %4, align 4
  call void @llvm.lifetime.end.p0(i64 4, ptr %5) #9
  br label %51

18:                                               ; preds = %14
  call void @llvm.lifetime.start.p0(i64 4, ptr %6) #9
  store i32 0, ptr %6, align 4, !tbaa !13
  br label %19

19:                                               ; preds = %44, %18
  %20 = load i32, ptr %6, align 4, !tbaa !13
  %21 = icmp slt i32 %20, 8
  br i1 %21, label %23, label %22

22:                                               ; preds = %19
  store i32 8, ptr %4, align 4
  call void @llvm.lifetime.end.p0(i64 4, ptr %6) #9
  br label %47

23:                                               ; preds = %19
  %24 = load i32, ptr %3, align 4, !tbaa !13
  %25 = sext i32 %24 to i64
  %26 = getelementptr inbounds [2 x [2 x [8 x [77 x [2 x i8]]]]], ptr @x8_ac_quant_table, i64 0, i64 %25
  %27 = load i32, ptr %5, align 4, !tbaa !13
  %28 = sext i32 %27 to i64
  %29 = getelementptr inbounds [2 x [8 x [77 x [2 x i8]]]], ptr %26, i64 0, i64 %28
  %30 = load i32, ptr %6, align 4, !tbaa !13
  %31 = sext i32 %30 to i64
  %32 = getelementptr inbounds [8 x [77 x [2 x i8]]], ptr %29, i64 0, i64 %31
  %33 = getelementptr inbounds [77 x [2 x i8]], ptr %32, i64 0, i64 0
  %34 = call ptr @x8_init_vlc(ptr noundef %1, i32 noundef 9, i32 noundef 77, ptr noundef %33) #10
  %35 = load i32, ptr %3, align 4, !tbaa !13
  %36 = sext i32 %35 to i64
  %37 = getelementptr inbounds [2 x [2 x [8 x ptr]]], ptr @j_ac_vlc, i64 0, i64 %36
  %38 = load i32, ptr %5, align 4, !tbaa !13
  %39 = sext i32 %38 to i64
  %40 = getelementptr inbounds [2 x [8 x ptr]], ptr %37, i64 0, i64 %39
  %41 = load i32, ptr %6, align 4, !tbaa !13
  %42 = sext i32 %41 to i64
  %43 = getelementptr inbounds [8 x ptr], ptr %40, i64 0, i64 %42
  store ptr %34, ptr %43, align 8, !tbaa !29
  br label %44

44:                                               ; preds = %23
  %45 = load i32, ptr %6, align 4, !tbaa !13
  %46 = add nsw i32 %45, 1
  store i32 %46, ptr %6, align 4, !tbaa !13
  br label %19, !llvm.loop !30

47:                                               ; preds = %22
  br label %48

48:                                               ; preds = %47
  %49 = load i32, ptr %5, align 4, !tbaa !13
  %50 = add nsw i32 %49, 1
  store i32 %50, ptr %5, align 4, !tbaa !13
  br label %14, !llvm.loop !32

51:                                               ; preds = %17
  br label %52

52:                                               ; preds = %51
  %53 = load i32, ptr %3, align 4, !tbaa !13
  %54 = add nsw i32 %53, 1
  store i32 %54, ptr %3, align 4, !tbaa !13
  br label %9, !llvm.loop !33

55:                                               ; preds = %12
  call void @llvm.lifetime.start.p0(i64 4, ptr %7) #9
  store i32 0, ptr %7, align 4, !tbaa !13
  br label %56

56:                                               ; preds = %84, %55
  %57 = load i32, ptr %7, align 4, !tbaa !13
  %58 = icmp slt i32 %57, 2
  br i1 %58, label %60, label %59

59:                                               ; preds = %56
  store i32 11, ptr %4, align 4
  call void @llvm.lifetime.end.p0(i64 4, ptr %7) #9
  br label %87

60:                                               ; preds = %56
  call void @llvm.lifetime.start.p0(i64 4, ptr %8) #9
  store i32 0, ptr %8, align 4, !tbaa !13
  br label %61

61:                                               ; preds = %80, %60
  %62 = load i32, ptr %8, align 4, !tbaa !13
  %63 = icmp slt i32 %62, 8
  br i1 %63, label %65, label %64

64:                                               ; preds = %61
  store i32 14, ptr %4, align 4
  call void @llvm.lifetime.end.p0(i64 4, ptr %8) #9
  br label %83

65:                                               ; preds = %61
  %66 = load i32, ptr %7, align 4, !tbaa !13
  %67 = sext i32 %66 to i64
  %68 = getelementptr inbounds [2 x [8 x [34 x [2 x i8]]]], ptr @x8_dc_quant_table, i64 0, i64 %67
  %69 = load i32, ptr %8, align 4, !tbaa !13
  %70 = sext i32 %69 to i64
  %71 = getelementptr inbounds [8 x [34 x [2 x i8]]], ptr %68, i64 0, i64 %70
  %72 = getelementptr inbounds [34 x [2 x i8]], ptr %71, i64 0, i64 0
  %73 = call ptr @x8_init_vlc(ptr noundef %1, i32 noundef 9, i32 noundef 34, ptr noundef %72) #10
  %74 = load i32, ptr %7, align 4, !tbaa !13
  %75 = sext i32 %74 to i64
  %76 = getelementptr inbounds [2 x [8 x ptr]], ptr @j_dc_vlc, i64 0, i64 %75
  %77 = load i32, ptr %8, align 4, !tbaa !13
  %78 = sext i32 %77 to i64
  %79 = getelementptr inbounds [8 x ptr], ptr %76, i64 0, i64 %78
  store ptr %73, ptr %79, align 8, !tbaa !29
  br label %80

80:                                               ; preds = %65
  %81 = load i32, ptr %8, align 4, !tbaa !13
  %82 = add nsw i32 %81, 1
  store i32 %82, ptr %8, align 4, !tbaa !13
  br label %61, !llvm.loop !34

83:                                               ; preds = %64
  br label %84

84:                                               ; preds = %83
  %85 = load i32, ptr %7, align 4, !tbaa !13
  %86 = add nsw i32 %85, 1
  store i32 %86, ptr %7, align 4, !tbaa !13
  br label %56, !llvm.loop !35

87:                                               ; preds = %59
  store i32 0, ptr %2, align 4, !tbaa !13
  br label %88

88:                                               ; preds = %100, %87
  %89 = load i32, ptr %2, align 4, !tbaa !13
  %90 = icmp slt i32 %89, 2
  br i1 %90, label %91, label %103

91:                                               ; preds = %88
  %92 = load i32, ptr %2, align 4, !tbaa !13
  %93 = sext i32 %92 to i64
  %94 = getelementptr inbounds [2 x [12 x [2 x i8]]], ptr @x8_orient_highquant_table, i64 0, i64 %93
  %95 = getelementptr inbounds [12 x [2 x i8]], ptr %94, i64 0, i64 0
  %96 = call ptr @x8_init_vlc(ptr noundef %1, i32 noundef 7, i32 noundef 12, ptr noundef %95) #10
  %97 = load i32, ptr %2, align 4, !tbaa !13
  %98 = sext i32 %97 to i64
  %99 = getelementptr inbounds [4 x ptr], ptr @j_orient_vlc, i64 0, i64 %98
  store ptr %96, ptr %99, align 8, !tbaa !29
  br label %100

100:                                              ; preds = %91
  %101 = load i32, ptr %2, align 4, !tbaa !13
  %102 = add nsw i32 %101, 1
  store i32 %102, ptr %2, align 4, !tbaa !13
  br label %88, !llvm.loop !36

103:                                              ; preds = %88
  store i32 0, ptr %2, align 4, !tbaa !13
  br label %104

104:                                              ; preds = %116, %103
  %105 = load i32, ptr %2, align 4, !tbaa !13
  %106 = icmp slt i32 %105, 4
  br i1 %106, label %107, label %119

107:                                              ; preds = %104
  %108 = load i32, ptr %2, align 4, !tbaa !13
  %109 = sext i32 %108 to i64
  %110 = getelementptr inbounds [4 x [12 x [2 x i8]]], ptr @x8_orient_lowquant_table, i64 0, i64 %109
  %111 = getelementptr inbounds [12 x [2 x i8]], ptr %110, i64 0, i64 0
  %112 = call ptr @x8_init_vlc(ptr noundef %1, i32 noundef 7, i32 noundef 12, ptr noundef %111) #10
  %113 = load i32, ptr %2, align 4, !tbaa !13
  %114 = sext i32 %113 to i64
  %115 = getelementptr inbounds [4 x ptr], ptr getelementptr inbounds ([2 x [4 x ptr]], ptr @j_orient_vlc, i64 0, i64 1), i64 0, i64 %114
  store ptr %112, ptr %115, align 8, !tbaa !29
  br label %116

116:                                              ; preds = %107
  %117 = load i32, ptr %2, align 4, !tbaa !13
  %118 = add nsw i32 %117, 1
  store i32 %118, ptr %2, align 4, !tbaa !13
  br label %104, !llvm.loop !37

119:                                              ; preds = %104
  call void @llvm.lifetime.end.p0(i64 4, ptr %2) #9
  call void @llvm.lifetime.end.p0(i64 16, ptr %1) #9
  ret void
}