; Function Attrs: cold nounwind optsize uwtable
define internal void @x8_vlc_init() #0 {
  %1 = alloca %struct.VLCInitState, align 8
  call void @llvm.lifetime.start.p0(i64 16, ptr nonnull %1) #7
  call void @llvm.memcpy.p0.p0.i64(ptr noundef nonnull align 8 dereferenceable(16) %1, ptr noundef nonnull align 8 dereferenceable(16) @__const.x8_vlc_init.state, i64 16, i1 false)
  br label %.preheader37

.preheader37:                                     ; preds = %0, %4
  %2 = phi i1 [ true, %0 ], [ false, %4 ]
  %indvars.iv49 = phi i64 [ 0, %0 ], [ 1, %4 ]
  br label %.preheader36

.preheader36:                                     ; preds = %.preheader37, %5
  %3 = phi i1 [ true, %.preheader37 ], [ false, %5 ]
  %indvars.iv46 = phi i64 [ 0, %.preheader37 ], [ 1, %5 ]
  br label %6

4:                                                ; preds = %5
  br i1 %2, label %.preheader37, label %.preheader34, !llvm.loop !24

5:                                                ; preds = %6
  br i1 %3, label %.preheader36, label %4, !llvm.loop !26

6:                                                ; preds = %.preheader36, %6
  %indvars.iv = phi i64 [ 0, %.preheader36 ], [ %indvars.iv.next, %6 ]
  %7 = getelementptr inbounds nuw [2 x [2 x [8 x [77 x [2 x i8]]]]], ptr @x8_ac_quant_table, i64 0, i64 %indvars.iv49, i64 %indvars.iv46, i64 %indvars.iv
  %8 = getelementptr inbounds nuw i8, ptr %7, i64 1
  %9 = call ptr @ff_vlc_init_tables_from_lengths(ptr noundef nonnull %1, i32 noundef 9, i32 noundef 77, ptr noundef nonnull %8, i32 noundef 2, ptr noundef nonnull %7, i32 noundef 2, i32 noundef 1, i32 noundef 0, i32 noundef 0) #7
  %10 = getelementptr inbounds nuw [2 x [2 x [8 x ptr]]], ptr @j_ac_vlc, i64 0, i64 %indvars.iv49, i64 %indvars.iv46, i64 %indvars.iv
  store ptr %9, ptr %10, align 8, !tbaa !27
  %indvars.iv.next = add nuw nsw i64 %indvars.iv, 1
  %exitcond.not = icmp eq i64 %indvars.iv.next, 8
  br i1 %exitcond.not, label %5, label %6, !llvm.loop !28

.preheader34:                                     ; preds = %4, %12
  %11 = phi i1 [ false, %12 ], [ true, %4 ]
  %indvars.iv56 = phi i64 [ 1, %12 ], [ 0, %4 ]
  br label %13

12:                                               ; preds = %13
  br i1 %11, label %.preheader34, label %.preheader33, !llvm.loop !29

13:                                               ; preds = %.preheader34, %13
  %indvars.iv52 = phi i64 [ 0, %.preheader34 ], [ %indvars.iv.next53, %13 ]
  %14 = getelementptr inbounds nuw [2 x [8 x [34 x [2 x i8]]]], ptr @x8_dc_quant_table, i64 0, i64 %indvars.iv56, i64 %indvars.iv52
  %15 = getelementptr inbounds nuw i8, ptr %14, i64 1
  %16 = call ptr @ff_vlc_init_tables_from_lengths(ptr noundef nonnull %1, i32 noundef 9, i32 noundef 34, ptr noundef nonnull %15, i32 noundef 2, ptr noundef nonnull %14, i32 noundef 2, i32 noundef 1, i32 noundef 0, i32 noundef 0) #7
  %17 = getelementptr inbounds nuw [2 x [8 x ptr]], ptr @j_dc_vlc, i64 0, i64 %indvars.iv56, i64 %indvars.iv52
  store ptr %16, ptr %17, align 8, !tbaa !27
  %indvars.iv.next53 = add nuw nsw i64 %indvars.iv52, 1
  %exitcond55.not = icmp eq i64 %indvars.iv.next53, 8
  br i1 %exitcond55.not, label %12, label %13, !llvm.loop !30

.preheader33:                                     ; preds = %12
  %18 = call ptr @ff_vlc_init_tables_from_lengths(ptr noundef nonnull %1, i32 noundef 7, i32 noundef 12, ptr noundef nonnull getelementptr inbounds nuw (i8, ptr @x8_orient_highquant_table, i64 1), i32 noundef 2, ptr noundef nonnull @x8_orient_highquant_table, i32 noundef 2, i32 noundef 1, i32 noundef 0, i32 noundef 0) #7
  store ptr %18, ptr @j_orient_vlc, align 16, !tbaa !27
  %19 = call ptr @ff_vlc_init_tables_from_lengths(ptr noundef nonnull %1, i32 noundef 7, i32 noundef 12, ptr noundef nonnull getelementptr inbounds nuw (i8, ptr @x8_orient_highquant_table, i64 25), i32 noundef 2, ptr noundef nonnull getelementptr inbounds nuw (i8, ptr @x8_orient_highquant_table, i64 24), i32 noundef 2, i32 noundef 1, i32 noundef 0, i32 noundef 0) #7
  store ptr %19, ptr getelementptr inbounds nuw (i8, ptr @j_orient_vlc, i64 8), align 8, !tbaa !27
  br label %.preheader

.preheader:                                       ; preds = %.preheader33, %.preheader
  %indvars.iv62 = phi i64 [ %indvars.iv.next63, %.preheader ], [ 0, %.preheader33 ]
  %20 = getelementptr inbounds nuw [4 x [12 x [2 x i8]]], ptr @x8_orient_lowquant_table, i64 0, i64 %indvars.iv62
  %21 = getelementptr inbounds nuw i8, ptr %20, i64 1
  %22 = call ptr @ff_vlc_init_tables_from_lengths(ptr noundef nonnull %1, i32 noundef 7, i32 noundef 12, ptr noundef nonnull %21, i32 noundef 2, ptr noundef nonnull %20, i32 noundef 2, i32 noundef 1, i32 noundef 0, i32 noundef 0) #7
  %23 = getelementptr inbounds nuw [4 x ptr], ptr getelementptr inbounds nuw (i8, ptr @j_orient_vlc, i64 32), i64 0, i64 %indvars.iv62
  store ptr %22, ptr %23, align 8, !tbaa !27
  %indvars.iv.next63 = add nuw nsw i64 %indvars.iv62, 1
  %exitcond65.not = icmp eq i64 %indvars.iv.next63, 4
  br i1 %exitcond65.not, label %24, label %.preheader, !llvm.loop !31

24:                                               ; preds = %.preheader
  call void @llvm.lifetime.end.p0(i64 16, ptr nonnull %1) #7
  ret void
}